
seven-seg.elf:     file format elf32-avr

Sections:
Idx Name          Size      VMA       LMA       File off  Algn
  0 .data         0000002a  00800100  0000053c  000005d0  2**0
                  CONTENTS, ALLOC, LOAD, DATA
  1 .text         0000053c  00000000  00000000  00000094  2**1
                  CONTENTS, ALLOC, LOAD, READONLY, CODE
  2 .bss          0000004a  0080012a  0080012a  000005fa  2**0
                  ALLOC
  3 .comment      00000030  00000000  00000000  000005fa  2**0
                  CONTENTS, READONLY
  4 .note.gnu.avr.deviceinfo 0000003c  00000000  00000000  0000062c  2**2
                  CONTENTS, READONLY
  5 .debug_aranges 000000a8  00000000  00000000  00000668  2**0
                  CONTENTS, READONLY, DEBUGGING
  6 .debug_info   000016b1  00000000  00000000  00000710  2**0
                  CONTENTS, READONLY, DEBUGGING
  7 .debug_abbrev 00000bad  00000000  00000000  00001dc1  2**0
                  CONTENTS, READONLY, DEBUGGING
  8 .debug_line   00000786  00000000  00000000  0000296e  2**0
                  CONTENTS, READONLY, DEBUGGING
  9 .debug_frame  0000024c  00000000  00000000  000030f4  2**2
                  CONTENTS, READONLY, DEBUGGING
 10 .debug_str    000006b1  00000000  00000000  00003340  2**0
                  CONTENTS, READONLY, DEBUGGING
 11 .debug_loc    00000c2a  00000000  00000000  000039f1  2**0
                  CONTENTS, READONLY, DEBUGGING
 12 .debug_ranges 00000078  00000000  00000000  0000461b  2**0
                  CONTENTS, READONLY, DEBUGGING

Disassembly of section .text:

00000000 <__vectors>:
   0:	85 c0       	rjmp	.+266    	; 0x10c <__ctors_end>
   2:	00 00       	nop
   4:	a0 c0       	rjmp	.+320    	; 0x146 <__bad_interrupt>
   6:	00 00       	nop
   8:	9e c0       	rjmp	.+316    	; 0x146 <__bad_interrupt>
   a:	00 00       	nop
   c:	9c c0       	rjmp	.+312    	; 0x146 <__bad_interrupt>
   e:	00 00       	nop
  10:	9a c0       	rjmp	.+308    	; 0x146 <__bad_interrupt>
  12:	00 00       	nop
  14:	98 c0       	rjmp	.+304    	; 0x146 <__bad_interrupt>
  16:	00 00       	nop
  18:	96 c0       	rjmp	.+300    	; 0x146 <__bad_interrupt>
  1a:	00 00       	nop
  1c:	94 c0       	rjmp	.+296    	; 0x146 <__bad_interrupt>
  1e:	00 00       	nop
  20:	92 c0       	rjmp	.+292    	; 0x146 <__bad_interrupt>
  22:	00 00       	nop
  24:	90 c0       	rjmp	.+288    	; 0x146 <__bad_interrupt>
  26:	00 00       	nop
  28:	8e c0       	rjmp	.+284    	; 0x146 <__bad_interrupt>
  2a:	00 00       	nop
  2c:	8c c0       	rjmp	.+280    	; 0x146 <__bad_interrupt>
  2e:	00 00       	nop
  30:	8a c0       	rjmp	.+276    	; 0x146 <__bad_interrupt>
  32:	00 00       	nop
  34:	88 c0       	rjmp	.+272    	; 0x146 <__bad_interrupt>
  36:	00 00       	nop
  38:	86 c0       	rjmp	.+268    	; 0x146 <__bad_interrupt>
  3a:	00 00       	nop
  3c:	84 c0       	rjmp	.+264    	; 0x146 <__bad_interrupt>
  3e:	00 00       	nop
  40:	82 c0       	rjmp	.+260    	; 0x146 <__bad_interrupt>
  42:	00 00       	nop
  44:	80 c0       	rjmp	.+256    	; 0x146 <__bad_interrupt>
  46:	00 00       	nop
  48:	7e c0       	rjmp	.+252    	; 0x146 <__bad_interrupt>
  4a:	00 00       	nop
  4c:	7c c0       	rjmp	.+248    	; 0x146 <__bad_interrupt>
  4e:	00 00       	nop
  50:	7a c0       	rjmp	.+244    	; 0x146 <__bad_interrupt>
  52:	00 00       	nop
  54:	78 c0       	rjmp	.+240    	; 0x146 <__bad_interrupt>
  56:	00 00       	nop
  58:	76 c0       	rjmp	.+236    	; 0x146 <__bad_interrupt>
  5a:	00 00       	nop
  5c:	74 c0       	rjmp	.+232    	; 0x146 <__bad_interrupt>
  5e:	00 00       	nop
  60:	72 c0       	rjmp	.+228    	; 0x146 <__bad_interrupt>
  62:	00 00       	nop
  64:	70 c0       	rjmp	.+224    	; 0x146 <__bad_interrupt>
  66:	00 00       	nop
  68:	6e c0       	rjmp	.+220    	; 0x146 <__bad_interrupt>
  6a:	00 00       	nop
  6c:	6c c0       	rjmp	.+216    	; 0x146 <__bad_interrupt>
  6e:	00 00       	nop
  70:	6a c0       	rjmp	.+212    	; 0x146 <__bad_interrupt>
  72:	00 00       	nop
  74:	68 c0       	rjmp	.+208    	; 0x146 <__bad_interrupt>
  76:	00 00       	nop
  78:	66 c0       	rjmp	.+204    	; 0x146 <__bad_interrupt>
  7a:	00 00       	nop
  7c:	64 c0       	rjmp	.+200    	; 0x146 <__bad_interrupt>
  7e:	00 00       	nop
  80:	62 c0       	rjmp	.+196    	; 0x146 <__bad_interrupt>
  82:	00 00       	nop
  84:	60 c0       	rjmp	.+192    	; 0x146 <__bad_interrupt>
  86:	00 00       	nop
  88:	5e c0       	rjmp	.+188    	; 0x146 <__bad_interrupt>
	...

0000008c <__trampolines_end>:
  8c:	7e 30       	cpi	r23, 0x0E	; 14
  8e:	6d 79       	andi	r22, 0x9D	; 157
  90:	33 5b       	subi	r19, 0xB3	; 179
  92:	5f 70       	andi	r21, 0x0F	; 15
  94:	7f 7b       	andi	r23, 0xBF	; 191
  96:	77 1f       	adc	r23, r23
  98:	4e 3d       	cpi	r20, 0xDE	; 222
  9a:	4f 47       	sbci	r20, 0x7F	; 127
	...
  ac:	00 00       	nop
  ae:	22 00       	.word	0x0022	; ????
  b0:	00 00       	nop
  b2:	00 20       	and	r0, r0
  b4:	4e 78       	andi	r20, 0x8E	; 142
  b6:	00 00       	nop
  b8:	04 01       	movw	r0, r8
  ba:	00 00       	nop
  bc:	7e 30       	cpi	r23, 0x0E	; 14
  be:	6d 79       	andi	r22, 0x9D	; 157
  c0:	33 5b       	subi	r19, 0xB3	; 179
  c2:	5f 70       	andi	r21, 0x0F	; 15
  c4:	7f 7b       	andi	r23, 0xBF	; 191
  c6:	00 00       	nop
  c8:	00 00       	nop
  ca:	00 00       	nop
  cc:	00 77       	andi	r16, 0x70	; 112
  ce:	1f 4e       	sbci	r17, 0xEF	; 239
  d0:	3d 4f       	sbci	r19, 0xFD	; 253
  d2:	47 5e       	subi	r20, 0xE7	; 231
  d4:	37 30       	cpi	r19, 0x07	; 7
  d6:	38 00       	.word	0x0038	; ????
  d8:	0e 00       	.word	0x000e	; ????
  da:	15 7e       	andi	r17, 0xE5	; 229
  dc:	67 73       	andi	r22, 0x37	; 55
  de:	05 5b       	subi	r16, 0xB5	; 181
  e0:	0f 3e       	cpi	r16, 0xEF	; 239
  e2:	00 00       	nop
  e4:	00 3b       	cpi	r16, 0xB0	; 176
  e6:	00 4e       	sbci	r16, 0xE0	; 224
  e8:	00 78       	andi	r16, 0x80	; 128
  ea:	00 08       	sbc	r0, r0
  ec:	02 77       	andi	r16, 0x72	; 114
  ee:	1f 0d       	add	r17, r15
  f0:	3d 6f       	ori	r19, 0xFD	; 253
  f2:	47 5e       	subi	r20, 0xE7	; 231
  f4:	17 10       	cpse	r1, r7
  f6:	38 00       	.word	0x0038	; ????
  f8:	30 00       	.word	0x0030	; ????
  fa:	15 1d       	adc	r17, r5
  fc:	67 73       	andi	r22, 0x37	; 55
  fe:	05 5b       	subi	r16, 0xB5	; 181
 100:	0f 1c       	adc	r0, r15
	...

0000010c <__ctors_end>:
 10c:	11 24       	eor	r1, r1
 10e:	1f be       	out	0x3f, r1	; 63
 110:	cf ef       	ldi	r28, 0xFF	; 255
 112:	d0 e1       	ldi	r29, 0x10	; 16
 114:	de bf       	out	0x3e, r29	; 62
 116:	cd bf       	out	0x3d, r28	; 61

00000118 <__do_copy_data>:
 118:	11 e0       	ldi	r17, 0x01	; 1
 11a:	a0 e0       	ldi	r26, 0x00	; 0
 11c:	b1 e0       	ldi	r27, 0x01	; 1
 11e:	ec e3       	ldi	r30, 0x3C	; 60
 120:	f5 e0       	ldi	r31, 0x05	; 5
 122:	00 e0       	ldi	r16, 0x00	; 0
 124:	0b bf       	out	0x3b, r16	; 59
 126:	02 c0       	rjmp	.+4      	; 0x12c <__do_copy_data+0x14>
 128:	07 90       	elpm	r0, Z+
 12a:	0d 92       	st	X+, r0
 12c:	aa 32       	cpi	r26, 0x2A	; 42
 12e:	b1 07       	cpc	r27, r17
 130:	d9 f7       	brne	.-10     	; 0x128 <__do_copy_data+0x10>

00000132 <__do_clear_bss>:
 132:	21 e0       	ldi	r18, 0x01	; 1
 134:	aa e2       	ldi	r26, 0x2A	; 42
 136:	b1 e0       	ldi	r27, 0x01	; 1
 138:	01 c0       	rjmp	.+2      	; 0x13c <.do_clear_bss_start>

0000013a <.do_clear_bss_loop>:
 13a:	1d 92       	st	X+, r1

0000013c <.do_clear_bss_start>:
 13c:	a4 37       	cpi	r26, 0x74	; 116
 13e:	b2 07       	cpc	r27, r18
 140:	e1 f7       	brne	.-8      	; 0x13a <.do_clear_bss_loop>
 142:	5d d0       	rcall	.+186    	; 0x1fe <main>
 144:	f9 c1       	rjmp	.+1010   	; 0x538 <_exit>

00000146 <__bad_interrupt>:
 146:	5c cf       	rjmp	.-328    	; 0x0 <__vectors>

00000148 <gpio_setdir>:
	u8_t r_reg = *gpiomap[io->port][2];
	if(r_reg & (1 << io->pin))
		return PIN_HIGH;
	else
		return PIN_LOW;
}
 148:	dc 01       	movw	r26, r24
 14a:	96 2f       	mov	r25, r22
 14c:	2c 91       	ld	r18, X
 14e:	30 e0       	ldi	r19, 0x00	; 0
 150:	f9 01       	movw	r30, r18
 152:	ee 0f       	add	r30, r30
 154:	ff 1f       	adc	r31, r31
 156:	e2 0f       	add	r30, r18
 158:	f3 1f       	adc	r31, r19
 15a:	ee 0f       	add	r30, r30
 15c:	ff 1f       	adc	r31, r31
 15e:	e0 50       	subi	r30, 0x00	; 0
 160:	ff 4f       	sbci	r31, 0xFF	; 255
 162:	01 90       	ld	r0, Z+
 164:	f0 81       	ld	r31, Z
 166:	e0 2d       	mov	r30, r0
 168:	60 81       	ld	r22, Z
 16a:	11 96       	adiw	r26, 0x01	; 1
 16c:	8c 91       	ld	r24, X
 16e:	21 e0       	ldi	r18, 0x01	; 1
 170:	30 e0       	ldi	r19, 0x00	; 0
 172:	08 2e       	mov	r0, r24
 174:	02 c0       	rjmp	.+4      	; 0x17a <gpio_setdir+0x32>
 176:	22 0f       	add	r18, r18
 178:	33 1f       	adc	r19, r19
 17a:	0a 94       	dec	r0
 17c:	e2 f7       	brpl	.-8      	; 0x176 <gpio_setdir+0x2e>
 17e:	20 95       	com	r18
 180:	26 23       	and	r18, r22
 182:	69 2f       	mov	r22, r25
 184:	70 e0       	ldi	r23, 0x00	; 0
 186:	02 c0       	rjmp	.+4      	; 0x18c <gpio_setdir+0x44>
 188:	66 0f       	add	r22, r22
 18a:	77 1f       	adc	r23, r23
 18c:	8a 95       	dec	r24
 18e:	e2 f7       	brpl	.-8      	; 0x188 <gpio_setdir+0x40>
 190:	62 2b       	or	r22, r18
 192:	60 83       	st	Z, r22
 194:	08 95       	ret

00000196 <gpio_set>:
 196:	dc 01       	movw	r26, r24
 198:	96 2f       	mov	r25, r22
 19a:	2c 91       	ld	r18, X
 19c:	30 e0       	ldi	r19, 0x00	; 0
 19e:	f9 01       	movw	r30, r18
 1a0:	ee 0f       	add	r30, r30
 1a2:	ff 1f       	adc	r31, r31
 1a4:	e2 0f       	add	r30, r18
 1a6:	f3 1f       	adc	r31, r19
 1a8:	ee 0f       	add	r30, r30
 1aa:	ff 1f       	adc	r31, r31
 1ac:	e0 50       	subi	r30, 0x00	; 0
 1ae:	ff 4f       	sbci	r31, 0xFF	; 255
 1b0:	02 80       	ldd	r0, Z+2	; 0x02
 1b2:	f3 81       	ldd	r31, Z+3	; 0x03
 1b4:	e0 2d       	mov	r30, r0
 1b6:	60 81       	ld	r22, Z
 1b8:	11 96       	adiw	r26, 0x01	; 1
 1ba:	8c 91       	ld	r24, X
 1bc:	21 e0       	ldi	r18, 0x01	; 1
 1be:	30 e0       	ldi	r19, 0x00	; 0
 1c0:	08 2e       	mov	r0, r24
 1c2:	02 c0       	rjmp	.+4      	; 0x1c8 <gpio_set+0x32>
 1c4:	22 0f       	add	r18, r18
 1c6:	33 1f       	adc	r19, r19
 1c8:	0a 94       	dec	r0
 1ca:	e2 f7       	brpl	.-8      	; 0x1c4 <gpio_set+0x2e>
 1cc:	20 95       	com	r18
 1ce:	26 23       	and	r18, r22
 1d0:	69 2f       	mov	r22, r25
 1d2:	70 e0       	ldi	r23, 0x00	; 0
 1d4:	02 c0       	rjmp	.+4      	; 0x1da <gpio_set+0x44>
 1d6:	66 0f       	add	r22, r22
 1d8:	77 1f       	adc	r23, r23
 1da:	8a 95       	dec	r24
 1dc:	e2 f7       	brpl	.-8      	; 0x1d6 <gpio_set+0x40>
 1de:	62 2b       	or	r22, r18
 1e0:	60 83       	st	Z, r22
 1e2:	08 95       	ret

000001e4 <gpio_config>:

void gpio_config(gpio_t *io,gpio_dir_t dir,gpio_state_t state) {
 1e4:	1f 93       	push	r17
 1e6:	cf 93       	push	r28
 1e8:	df 93       	push	r29
 1ea:	ec 01       	movw	r28, r24
 1ec:	14 2f       	mov	r17, r20
	gpio_setdir(io,dir);
 1ee:	ac df       	rcall	.-168    	; 0x148 <gpio_setdir>
	gpio_set(io,state);
 1f0:	61 2f       	mov	r22, r17
 1f2:	ce 01       	movw	r24, r28
 1f4:	d0 df       	rcall	.-96     	; 0x196 <gpio_set>
}
 1f6:	df 91       	pop	r29
 1f8:	cf 91       	pop	r28
 1fa:	1f 91       	pop	r17
 1fc:	08 95       	ret

000001fe <main>:
							 SEG_PIN(PORT_B,PIN_2),
							 SEG_PIN(PORT_B,PIN_3),
							 SEG_PIN(PORT_B,PIN_4),
							 SEG_PIN(PORT_B,PIN_5),
							 SEG_PIN(PORT_B,PIN_6),
							 SEG_PIN(PORT_B,PIN_7), 
 1fe:	c1 e0       	ldi	r28, 0x01	; 1
 200:	0f 2e       	mov	r0, r31
 202:	f7 e0       	ldi	r31, 0x07	; 7
 204:	df 2e       	mov	r13, r31
 206:	f0 2d       	mov	r31, r0
							 SEG_PIN(PORT_B,PIN_1),
							 SEG_PIN(PORT_B,PIN_2),
							 SEG_PIN(PORT_B,PIN_3),
							 SEG_PIN(PORT_B,PIN_4),
							 SEG_PIN(PORT_B,PIN_5),
							 SEG_PIN(PORT_B,PIN_6),
 208:	0f 2e       	mov	r0, r31
 20a:	f6 e0       	ldi	r31, 0x06	; 6
 20c:	ef 2e       	mov	r14, r31
 20e:	f0 2d       	mov	r31, r0
							 SEG_PIN(PORT_B,PIN_0),  // data pins
							 SEG_PIN(PORT_B,PIN_1),
							 SEG_PIN(PORT_B,PIN_2),
							 SEG_PIN(PORT_B,PIN_3),
							 SEG_PIN(PORT_B,PIN_4),
							 SEG_PIN(PORT_B,PIN_5),
 210:	0f 2e       	mov	r0, r31
 212:	f5 e0       	ldi	r31, 0x05	; 5
 214:	ff 2e       	mov	r15, r31
 216:	f0 2d       	mov	r31, r0
							 
							 SEG_PIN(PORT_B,PIN_0),  // data pins
							 SEG_PIN(PORT_B,PIN_1),
							 SEG_PIN(PORT_B,PIN_2),
							 SEG_PIN(PORT_B,PIN_3),
							 SEG_PIN(PORT_B,PIN_4),
 218:	14 e0       	ldi	r17, 0x04	; 4
							 SEG_PIN(PORT_A,PIN_7),*/
							 
							 SEG_PIN(PORT_B,PIN_0),  // data pins
							 SEG_PIN(PORT_B,PIN_1),
							 SEG_PIN(PORT_B,PIN_2),
							 SEG_PIN(PORT_B,PIN_3),
 21a:	d3 e0       	ldi	r29, 0x03	; 3
							 SEG_PIN(PORT_A,PIN_6),
							 SEG_PIN(PORT_A,PIN_7),*/
							 
							 SEG_PIN(PORT_B,PIN_0),  // data pins
							 SEG_PIN(PORT_B,PIN_1),
							 SEG_PIN(PORT_B,PIN_2),
 21c:	02 e0       	ldi	r16, 0x02	; 2
	
int main(void)
{
	//int x =35;
	
   segment_config(&sev_seg,
 21e:	1f 92       	push	r1
 220:	1f 92       	push	r1
 222:	df 92       	push	r13
 224:	cf 93       	push	r28
 226:	ef 92       	push	r14
 228:	cf 93       	push	r28
 22a:	ff 92       	push	r15
 22c:	cf 93       	push	r28
 22e:	1f 93       	push	r17
 230:	cf 93       	push	r28
 232:	df 93       	push	r29
 234:	cf 93       	push	r28
 236:	0f 93       	push	r16
 238:	cf 93       	push	r28
 23a:	cf 93       	push	r28
 23c:	cf 93       	push	r28
 23e:	1f 92       	push	r1
 240:	cf 93       	push	r28
 242:	1f 93       	push	r17
 244:	1f 92       	push	r1
 246:	df 93       	push	r29
 248:	1f 92       	push	r1
 24a:	0f 93       	push	r16
 24c:	1f 92       	push	r1
 24e:	cf 93       	push	r28
 250:	1f 92       	push	r1
 252:	1f 92       	push	r1
 254:	1f 92       	push	r1
 256:	ff 92       	push	r15
 258:	8f e4       	ldi	r24, 0x4F	; 79
 25a:	91 e0       	ldi	r25, 0x01	; 1
 25c:	9f 93       	push	r25
 25e:	8f 93       	push	r24
 260:	56 d0       	rcall	.+172    	; 0x30e <segment_config>
							 SEG_PIN(PORT_B,PIN_6),
							 SEG_PIN(PORT_B,PIN_7), 
							 
							 SEG_ANODE); //type
							 
      segment_config(&sev_seg_2,
 262:	1f 92       	push	r1
 264:	cf 93       	push	r28
 266:	df 92       	push	r13
 268:	df 93       	push	r29
 26a:	ef 92       	push	r14
 26c:	df 93       	push	r29
 26e:	ff 92       	push	r15
 270:	df 93       	push	r29
 272:	1f 93       	push	r17
 274:	df 93       	push	r29
 276:	df 93       	push	r29
 278:	df 93       	push	r29
 27a:	0f 93       	push	r16
 27c:	df 93       	push	r29
 27e:	cf 93       	push	r28
 280:	df 93       	push	r29
 282:	1f 92       	push	r1
 284:	df 93       	push	r29
 286:	ff 92       	push	r15
 288:	1f 93       	push	r17
 28a:	1f 93       	push	r17
 28c:	1f 93       	push	r17
 28e:	df 93       	push	r29
 290:	1f 93       	push	r17
 292:	0f 93       	push	r16
 294:	1f 93       	push	r17
 296:	cf 93       	push	r28
 298:	1f 93       	push	r17
 29a:	1f 92       	push	r1
 29c:	1f 93       	push	r17
 29e:	ef 92       	push	r14
 2a0:	8a e2       	ldi	r24, 0x2A	; 42
 2a2:	91 e0       	ldi	r25, 0x01	; 1
 2a4:	9f 93       	push	r25
 2a6:	8f 93       	push	r24
 2a8:	32 d0       	rcall	.+100    	; 0x30e <segment_config>
 2aa:	8d b7       	in	r24, 0x3d	; 61
 2ac:	9e b7       	in	r25, 0x3e	; 62
 2ae:	80 5c       	subi	r24, 0xC0	; 192
 2b0:	9f 4f       	sbci	r25, 0xFF	; 255
 2b2:	0f b6       	in	r0, 0x3f	; 63
 2b4:	f8 94       	cli
 2b6:	9e bf       	out	0x3e, r25	; 62
 2b8:	0f be       	out	0x3f, r0	; 63
 2ba:	8d bf       	out	0x3d, r24	; 61
							 
    while (1) 
    {
		
				
				segment_writeChar(&sev_seg_2,0,'S');
 2bc:	43 e5       	ldi	r20, 0x53	; 83
 2be:	60 e0       	ldi	r22, 0x00	; 0
 2c0:	8a e2       	ldi	r24, 0x2A	; 42
 2c2:	91 e0       	ldi	r25, 0x01	; 1
 2c4:	1d d1       	rcall	.+570    	; 0x500 <segment_writeChar>
				
				segment_writeChar(&sev_seg_2,1,9);
 2c6:	49 e0       	ldi	r20, 0x09	; 9
 2c8:	61 e0       	ldi	r22, 0x01	; 1
 2ca:	8a e2       	ldi	r24, 0x2A	; 42
 2cc:	91 e0       	ldi	r25, 0x01	; 1
 2ce:	18 d1       	rcall	.+560    	; 0x500 <segment_writeChar>
				segment_writeChar(&sev_seg_2,2,4);
 2d0:	44 e0       	ldi	r20, 0x04	; 4
 2d2:	62 e0       	ldi	r22, 0x02	; 2
 2d4:	8a e2       	ldi	r24, 0x2A	; 42
 2d6:	91 e0       	ldi	r25, 0x01	; 1
 2d8:	13 d1       	rcall	.+550    	; 0x500 <segment_writeChar>
				
		segment_writeChar(&sev_seg,0,'T');
 2da:	44 e5       	ldi	r20, 0x54	; 84
 2dc:	60 e0       	ldi	r22, 0x00	; 0
 2de:	8f e4       	ldi	r24, 0x4F	; 79
 2e0:	91 e0       	ldi	r25, 0x01	; 1
 2e2:	0e d1       	rcall	.+540    	; 0x500 <segment_writeChar>
		
		segment_writeChar(&sev_seg,1,4);
 2e4:	44 e0       	ldi	r20, 0x04	; 4
 2e6:	61 e0       	ldi	r22, 0x01	; 1
 2e8:	8f e4       	ldi	r24, 0x4F	; 79
 2ea:	91 e0       	ldi	r25, 0x01	; 1
 2ec:	09 d1       	rcall	.+530    	; 0x500 <segment_writeChar>
        segment_writeChar(&sev_seg,2,1);
 2ee:	41 e0       	ldi	r20, 0x01	; 1
 2f0:	62 e0       	ldi	r22, 0x02	; 2
 2f2:	8f e4       	ldi	r24, 0x4F	; 79
 2f4:	91 e0       	ldi	r25, 0x01	; 1
 2f6:	04 d1       	rcall	.+520    	; 0x500 <segment_writeChar>
		
		segment_writeChar(&sev_seg,3,'\'');
 2f8:	47 e2       	ldi	r20, 0x27	; 39
 2fa:	63 e0       	ldi	r22, 0x03	; 3
 2fc:	8f e4       	ldi	r24, 0x4F	; 79
 2fe:	91 e0       	ldi	r25, 0x01	; 1
 300:	ff d0       	rcall	.+510    	; 0x500 <segment_writeChar>
		segment_writeChar(&sev_seg,4,'C');
 302:	43 e4       	ldi	r20, 0x43	; 67
 304:	64 e0       	ldi	r22, 0x04	; 4
 306:	8f e4       	ldi	r24, 0x4F	; 79
 308:	91 e0       	ldi	r25, 0x01	; 1
 30a:	fa d0       	rcall	.+500    	; 0x500 <segment_writeChar>
 30c:	d7 cf       	rjmp	.-82     	; 0x2bc <main+0xbe>

0000030e <segment_config>:
	
};



void segment_config(segment_t *seg,u8_t cntrl_bus,...) {
 30e:	cf 92       	push	r12
 310:	df 92       	push	r13
 312:	ef 92       	push	r14
 314:	ff 92       	push	r15
 316:	0f 93       	push	r16
 318:	1f 93       	push	r17
 31a:	cf 93       	push	r28
 31c:	df 93       	push	r29
 31e:	cd b7       	in	r28, 0x3d	; 61
 320:	de b7       	in	r29, 0x3e	; 62
 322:	0b 85       	ldd	r16, Y+11	; 0x0b
 324:	1c 85       	ldd	r17, Y+12	; 0x0c
 326:	4d 85       	ldd	r20, Y+13	; 0x0d
	
	va_list args;
	
	seg->max_digits = cntrl_bus;
 328:	f8 01       	movw	r30, r16
 32a:	40 a3       	std	Z+32, r20	; 0x20
	
	va_start(args,cntrl_bus);
 32c:	fe 01       	movw	r30, r28
 32e:	3e 96       	adiw	r30, 0x0e	; 14
	
	for(int  i = 0 ; i < cntrl_bus; i++) {
 330:	80 e0       	ldi	r24, 0x00	; 0
 332:	90 e0       	ldi	r25, 0x00	; 0
 334:	0c c0       	rjmp	.+24     	; 0x34e <segment_config+0x40>
		seg->cntrl_bus[i] = va_arg(args,gpio_t);
 336:	dc 01       	movw	r26, r24
 338:	18 96       	adiw	r26, 0x08	; 8
 33a:	aa 0f       	add	r26, r26
 33c:	bb 1f       	adc	r27, r27
 33e:	a0 0f       	add	r26, r16
 340:	b1 1f       	adc	r27, r17
 342:	20 81       	ld	r18, Z
 344:	31 81       	ldd	r19, Z+1	; 0x01
 346:	2d 93       	st	X+, r18
 348:	3c 93       	st	X, r19
	
	seg->max_digits = cntrl_bus;
	
	va_start(args,cntrl_bus);
	
	for(int  i = 0 ; i < cntrl_bus; i++) {
 34a:	01 96       	adiw	r24, 0x01	; 1
		seg->cntrl_bus[i] = va_arg(args,gpio_t);
 34c:	32 96       	adiw	r30, 0x02	; 2
	
	seg->max_digits = cntrl_bus;
	
	va_start(args,cntrl_bus);
	
	for(int  i = 0 ; i < cntrl_bus; i++) {
 34e:	c4 2e       	mov	r12, r20
 350:	d1 2c       	mov	r13, r1
 352:	8c 15       	cp	r24, r12
 354:	9d 05       	cpc	r25, r13
 356:	7c f3       	brlt	.-34     	; 0x336 <segment_config+0x28>
 358:	80 e0       	ldi	r24, 0x00	; 0
 35a:	90 e0       	ldi	r25, 0x00	; 0
 35c:	0b c0       	rjmp	.+22     	; 0x374 <segment_config+0x66>
		seg->cntrl_bus[i] = va_arg(args,gpio_t);
		
	}
	
	for(int i = 0; i < 8; i++) {
		seg->data_bus[i] = va_arg(args,gpio_t);
 35e:	dc 01       	movw	r26, r24
 360:	aa 0f       	add	r26, r26
 362:	bb 1f       	adc	r27, r27
 364:	a0 0f       	add	r26, r16
 366:	b1 1f       	adc	r27, r17
 368:	20 81       	ld	r18, Z
 36a:	31 81       	ldd	r19, Z+1	; 0x01
 36c:	2d 93       	st	X+, r18
 36e:	3c 93       	st	X, r19
	for(int  i = 0 ; i < cntrl_bus; i++) {
		seg->cntrl_bus[i] = va_arg(args,gpio_t);
		
	}
	
	for(int i = 0; i < 8; i++) {
 370:	01 96       	adiw	r24, 0x01	; 1
		seg->data_bus[i] = va_arg(args,gpio_t);
 372:	32 96       	adiw	r30, 0x02	; 2
	for(int  i = 0 ; i < cntrl_bus; i++) {
		seg->cntrl_bus[i] = va_arg(args,gpio_t);
		
	}
	
	for(int i = 0; i < 8; i++) {
 374:	88 30       	cpi	r24, 0x08	; 8
 376:	91 05       	cpc	r25, r1
 378:	94 f3       	brlt	.-28     	; 0x35e <segment_config+0x50>
		seg->data_bus[i] = va_arg(args,gpio_t);
		
	}
	
	u8_t type = (u8_t)va_arg(args,int);
 37a:	80 81       	ld	r24, Z
	
	if(type == SEG_ANODE) {
 37c:	81 11       	cpse	r24, r1
 37e:	07 c0       	rjmp	.+14     	; 0x38e <segment_config+0x80>
		
		seg->segOn = PIN_LOW;
 380:	f8 01       	movw	r30, r16
 382:	11 a2       	std	Z+33, r1	; 0x21
		seg->segOff = PIN_HIGH;
 384:	81 e0       	ldi	r24, 0x01	; 1
 386:	82 a3       	std	Z+34, r24	; 0x22
		
		seg->digOn  = PIN_HIGH;
 388:	84 a3       	std	Z+36, r24	; 0x24
		seg->digOff = PIN_LOW;
 38a:	13 a2       	std	Z+35, r1	; 0x23
 38c:	06 c0       	rjmp	.+12     	; 0x39a <segment_config+0x8c>
	}
	else {
		
		seg->segOn = PIN_HIGH;
 38e:	81 e0       	ldi	r24, 0x01	; 1
 390:	f8 01       	movw	r30, r16
 392:	81 a3       	std	Z+33, r24	; 0x21
		seg->segOff = PIN_LOW;
 394:	12 a2       	std	Z+34, r1	; 0x22
		
		seg->digOn  = PIN_LOW;
 396:	14 a2       	std	Z+36, r1	; 0x24
		seg->digOff = PIN_HIGH;
 398:	83 a3       	std	Z+35, r24	; 0x23
	}
	va_end(args);
	
	for(int  i = 0 ; i < cntrl_bus; i++)
 39a:	e1 2c       	mov	r14, r1
 39c:	f1 2c       	mov	r15, r1
 39e:	0d c0       	rjmp	.+26     	; 0x3ba <segment_config+0xac>
		gpio_config(&seg->cntrl_bus[i],PIN_OUT,seg->digOff);
 3a0:	f8 01       	movw	r30, r16
 3a2:	43 a1       	ldd	r20, Z+35	; 0x23
 3a4:	c7 01       	movw	r24, r14
 3a6:	08 96       	adiw	r24, 0x08	; 8
 3a8:	88 0f       	add	r24, r24
 3aa:	99 1f       	adc	r25, r25
 3ac:	61 e0       	ldi	r22, 0x01	; 1
 3ae:	80 0f       	add	r24, r16
 3b0:	91 1f       	adc	r25, r17
 3b2:	18 df       	rcall	.-464    	; 0x1e4 <gpio_config>
		seg->digOn  = PIN_LOW;
		seg->digOff = PIN_HIGH;
	}
	va_end(args);
	
	for(int  i = 0 ; i < cntrl_bus; i++)
 3b4:	ff ef       	ldi	r31, 0xFF	; 255
 3b6:	ef 1a       	sub	r14, r31
 3b8:	ff 0a       	sbc	r15, r31
 3ba:	ec 14       	cp	r14, r12
 3bc:	fd 04       	cpc	r15, r13
 3be:	84 f3       	brlt	.-32     	; 0x3a0 <segment_config+0x92>
 3c0:	e1 2c       	mov	r14, r1
 3c2:	f1 2c       	mov	r15, r1
 3c4:	0c c0       	rjmp	.+24     	; 0x3de <segment_config+0xd0>
		gpio_config(&seg->cntrl_bus[i],PIN_OUT,seg->digOff);
	for(int i = 0; i < 7; i++)
		gpio_config(&seg->data_bus[i],PIN_OUT,seg->segOff);
 3c6:	f8 01       	movw	r30, r16
 3c8:	42 a1       	ldd	r20, Z+34	; 0x22
 3ca:	c7 01       	movw	r24, r14
 3cc:	88 0f       	add	r24, r24
 3ce:	99 1f       	adc	r25, r25
 3d0:	61 e0       	ldi	r22, 0x01	; 1
 3d2:	80 0f       	add	r24, r16
 3d4:	91 1f       	adc	r25, r17
 3d6:	06 df       	rcall	.-500    	; 0x1e4 <gpio_config>
	}
	va_end(args);
	
	for(int  i = 0 ; i < cntrl_bus; i++)
		gpio_config(&seg->cntrl_bus[i],PIN_OUT,seg->digOff);
	for(int i = 0; i < 7; i++)
 3d8:	ff ef       	ldi	r31, 0xFF	; 255
 3da:	ef 1a       	sub	r14, r31
 3dc:	ff 0a       	sbc	r15, r31
 3de:	87 e0       	ldi	r24, 0x07	; 7
 3e0:	e8 16       	cp	r14, r24
 3e2:	f1 04       	cpc	r15, r1
 3e4:	84 f3       	brlt	.-32     	; 0x3c6 <segment_config+0xb8>
		gpio_config(&seg->data_bus[i],PIN_OUT,seg->segOff);
}
 3e6:	df 91       	pop	r29
 3e8:	cf 91       	pop	r28
 3ea:	1f 91       	pop	r17
 3ec:	0f 91       	pop	r16
 3ee:	ff 90       	pop	r15
 3f0:	ef 90       	pop	r14
 3f2:	df 90       	pop	r13
 3f4:	cf 90       	pop	r12
 3f6:	08 95       	ret

000003f8 <segment_select>:

void segment_select(segment_t *seg,u8_t dig) {
	
	if(dig >= seg->max_digits)
 3f8:	fc 01       	movw	r30, r24
 3fa:	20 a1       	ldd	r18, Z+32	; 0x20
 3fc:	62 17       	cp	r22, r18
 3fe:	50 f4       	brcc	.+20     	; 0x414 <__LOCK_REGION_LENGTH__+0x14>
 400:	26 2f       	mov	r18, r22
		return;
	
    	gpio_set(&seg->cntrl_bus[dig],seg->digOn);
 402:	64 a1       	ldd	r22, Z+36	; 0x24
 404:	30 e0       	ldi	r19, 0x00	; 0
 406:	28 5f       	subi	r18, 0xF8	; 248
 408:	3f 4f       	sbci	r19, 0xFF	; 255
 40a:	22 0f       	add	r18, r18
 40c:	33 1f       	adc	r19, r19
 40e:	82 0f       	add	r24, r18
 410:	93 1f       	adc	r25, r19
 412:	c1 ce       	rjmp	.-638    	; 0x196 <gpio_set>
 414:	08 95       	ret

00000416 <segment_disselect>:
}

void segment_disselect(segment_t *seg,u8_t dig) {
	
	if(dig >= seg->max_digits)
 416:	fc 01       	movw	r30, r24
 418:	20 a1       	ldd	r18, Z+32	; 0x20
 41a:	62 17       	cp	r22, r18
 41c:	50 f4       	brcc	.+20     	; 0x432 <segment_disselect+0x1c>
 41e:	26 2f       	mov	r18, r22
		return;
	
	gpio_set(&seg->cntrl_bus[dig],seg->digOff);
 420:	63 a1       	ldd	r22, Z+35	; 0x23
 422:	30 e0       	ldi	r19, 0x00	; 0
 424:	28 5f       	subi	r18, 0xF8	; 248
 426:	3f 4f       	sbci	r19, 0xFF	; 255
 428:	22 0f       	add	r18, r18
 42a:	33 1f       	adc	r19, r19
 42c:	82 0f       	add	r24, r18
 42e:	93 1f       	adc	r25, r19
 430:	b2 ce       	rjmp	.-668    	; 0x196 <gpio_set>
 432:	08 95       	ret

00000434 <segment_write>:
}

void segment_write(segment_t *seg,u8_t dig, u8_t val) {			
 434:	1f 93       	push	r17
 436:	cf 93       	push	r28
 438:	df 93       	push	r29
		
		if(dig >= seg->max_digits)
 43a:	fc 01       	movw	r30, r24
 43c:	20 a1       	ldd	r18, Z+32	; 0x20
 43e:	62 17       	cp	r22, r18
 440:	08 f0       	brcs	.+2      	; 0x444 <segment_write+0x10>
 442:	5a c0       	rjmp	.+180    	; 0x4f8 <segment_write+0xc4>
 444:	ec 01       	movw	r28, r24
			return;
			
		u8_t chr = pgm_read_byte(&getSegChar[val]);	
 446:	e4 2f       	mov	r30, r20
 448:	f0 e0       	ldi	r31, 0x00	; 0
 44a:	e4 57       	subi	r30, 0x74	; 116
 44c:	ff 4f       	sbci	r31, 0xFF	; 255
 44e:	14 91       	lpm	r17, Z
			
		if((chr & (1 << 7)))
 450:	11 23       	and	r17, r17
 452:	24 f4       	brge	.+8      	; 0x45c <segment_write+0x28>
			gpio_set(&seg->data_bus[SEG_BUS_H],seg->segOn);
 454:	69 a1       	ldd	r22, Y+33	; 0x21
 456:	0e 96       	adiw	r24, 0x0e	; 14
 458:	9e de       	rcall	.-708    	; 0x196 <gpio_set>
 45a:	03 c0       	rjmp	.+6      	; 0x462 <segment_write+0x2e>
		else 
			gpio_set(&seg->data_bus[SEG_BUS_H],seg->segOff);
 45c:	6a a1       	ldd	r22, Y+34	; 0x22
 45e:	0e 96       	adiw	r24, 0x0e	; 14
 460:	9a de       	rcall	.-716    	; 0x196 <gpio_set>
			
		if((chr & (1 << 6)))
 462:	16 ff       	sbrs	r17, 6
 464:	04 c0       	rjmp	.+8      	; 0x46e <segment_write+0x3a>
			gpio_set(&seg->data_bus[SEG_BUS_A],seg->segOn);
 466:	69 a1       	ldd	r22, Y+33	; 0x21
 468:	ce 01       	movw	r24, r28
 46a:	95 de       	rcall	.-726    	; 0x196 <gpio_set>
 46c:	03 c0       	rjmp	.+6      	; 0x474 <segment_write+0x40>
		else 
			gpio_set(&seg->data_bus[SEG_BUS_A],seg->segOff);
 46e:	6a a1       	ldd	r22, Y+34	; 0x22
 470:	ce 01       	movw	r24, r28
 472:	91 de       	rcall	.-734    	; 0x196 <gpio_set>
 474:	15 ff       	sbrs	r17, 5
			
		if((chr & (1 << 5)))
 476:	05 c0       	rjmp	.+10     	; 0x482 <segment_write+0x4e>
			gpio_set(&seg->data_bus[SEG_BUS_B],seg->segOn);
 478:	69 a1       	ldd	r22, Y+33	; 0x21
 47a:	ce 01       	movw	r24, r28
 47c:	02 96       	adiw	r24, 0x02	; 2
 47e:	8b de       	rcall	.-746    	; 0x196 <gpio_set>
 480:	04 c0       	rjmp	.+8      	; 0x48a <segment_write+0x56>
		else 
			gpio_set(&seg->data_bus[SEG_BUS_B],seg->segOff);
 482:	6a a1       	ldd	r22, Y+34	; 0x22
 484:	ce 01       	movw	r24, r28
 486:	02 96       	adiw	r24, 0x02	; 2
 488:	86 de       	rcall	.-756    	; 0x196 <gpio_set>
			
		if((chr & (1 << 4)))
 48a:	14 ff       	sbrs	r17, 4
 48c:	05 c0       	rjmp	.+10     	; 0x498 <segment_write+0x64>
			gpio_set(&seg->data_bus[SEG_BUS_C],seg->segOn);
 48e:	69 a1       	ldd	r22, Y+33	; 0x21
 490:	ce 01       	movw	r24, r28
 492:	04 96       	adiw	r24, 0x04	; 4
 494:	80 de       	rcall	.-768    	; 0x196 <gpio_set>
 496:	04 c0       	rjmp	.+8      	; 0x4a0 <segment_write+0x6c>
		else 
			gpio_set(&seg->data_bus[SEG_BUS_C],seg->segOff);
 498:	6a a1       	ldd	r22, Y+34	; 0x22
 49a:	ce 01       	movw	r24, r28
 49c:	04 96       	adiw	r24, 0x04	; 4
 49e:	7b de       	rcall	.-778    	; 0x196 <gpio_set>
			
		if((chr & (1 << 3)))
 4a0:	13 ff       	sbrs	r17, 3
 4a2:	05 c0       	rjmp	.+10     	; 0x4ae <segment_write+0x7a>
			gpio_set(&seg->data_bus[SEG_BUS_D],seg->segOn);
 4a4:	69 a1       	ldd	r22, Y+33	; 0x21
 4a6:	ce 01       	movw	r24, r28
 4a8:	06 96       	adiw	r24, 0x06	; 6
 4aa:	75 de       	rcall	.-790    	; 0x196 <gpio_set>
 4ac:	04 c0       	rjmp	.+8      	; 0x4b6 <segment_write+0x82>
		else 
			gpio_set(&seg->data_bus[SEG_BUS_D],seg->segOff);
 4ae:	6a a1       	ldd	r22, Y+34	; 0x22
 4b0:	ce 01       	movw	r24, r28
 4b2:	06 96       	adiw	r24, 0x06	; 6
 4b4:	70 de       	rcall	.-800    	; 0x196 <gpio_set>
			
		if((chr & (1 << 2)))
 4b6:	12 ff       	sbrs	r17, 2
			gpio_set(&seg->data_bus[SEG_BUS_E],seg->segOn);
 4b8:	05 c0       	rjmp	.+10     	; 0x4c4 <segment_write+0x90>
 4ba:	69 a1       	ldd	r22, Y+33	; 0x21
 4bc:	ce 01       	movw	r24, r28
 4be:	08 96       	adiw	r24, 0x08	; 8
 4c0:	6a de       	rcall	.-812    	; 0x196 <gpio_set>
		else 
			gpio_set(&seg->data_bus[SEG_BUS_E],seg->segOff);
 4c2:	04 c0       	rjmp	.+8      	; 0x4cc <segment_write+0x98>
 4c4:	6a a1       	ldd	r22, Y+34	; 0x22
 4c6:	ce 01       	movw	r24, r28
 4c8:	08 96       	adiw	r24, 0x08	; 8
			
		if((chr & (1 << 1)))
 4ca:	65 de       	rcall	.-822    	; 0x196 <gpio_set>
 4cc:	11 ff       	sbrs	r17, 1
			gpio_set(&seg->data_bus[SEG_BUS_F],seg->segOn);
 4ce:	05 c0       	rjmp	.+10     	; 0x4da <segment_write+0xa6>
 4d0:	69 a1       	ldd	r22, Y+33	; 0x21
 4d2:	ce 01       	movw	r24, r28
 4d4:	0a 96       	adiw	r24, 0x0a	; 10
 4d6:	5f de       	rcall	.-834    	; 0x196 <gpio_set>
		else 
			gpio_set(&seg->data_bus[SEG_BUS_F],seg->segOff);
 4d8:	04 c0       	rjmp	.+8      	; 0x4e2 <segment_write+0xae>
 4da:	6a a1       	ldd	r22, Y+34	; 0x22
 4dc:	ce 01       	movw	r24, r28
 4de:	0a 96       	adiw	r24, 0x0a	; 10
			
		if((chr & (1 << 0)))
 4e0:	5a de       	rcall	.-844    	; 0x196 <gpio_set>
 4e2:	10 ff       	sbrs	r17, 0
			gpio_set(&seg->data_bus[SEG_BUS_G],seg->segOn);
 4e4:	05 c0       	rjmp	.+10     	; 0x4f0 <segment_write+0xbc>
 4e6:	69 a1       	ldd	r22, Y+33	; 0x21
 4e8:	ce 01       	movw	r24, r28
 4ea:	0c 96       	adiw	r24, 0x0c	; 12
 4ec:	54 de       	rcall	.-856    	; 0x196 <gpio_set>
 4ee:	04 c0       	rjmp	.+8      	; 0x4f8 <segment_write+0xc4>
		else 
			gpio_set(&seg->data_bus[SEG_BUS_G],seg->segOff);
 4f0:	6a a1       	ldd	r22, Y+34	; 0x22
 4f2:	ce 01       	movw	r24, r28
 4f4:	0c 96       	adiw	r24, 0x0c	; 12
 4f6:	4f de       	rcall	.-866    	; 0x196 <gpio_set>
 4f8:	df 91       	pop	r29
		
}
 4fa:	cf 91       	pop	r28
 4fc:	1f 91       	pop	r17
 4fe:	08 95       	ret

00000500 <segment_writeChar>:
 500:	1f 93       	push	r17

void segment_writeChar(segment_t *seg,u8_t dig,u8_t chr) {
 502:	cf 93       	push	r28
 504:	df 93       	push	r29
 506:	ec 01       	movw	r28, r24
 508:	16 2f       	mov	r17, r22
	
	segment_write(seg,dig,chr);
 50a:	94 df       	rcall	.-216    	; 0x434 <segment_write>

	segment_select(seg,dig);
 50c:	61 2f       	mov	r22, r17
 50e:	ce 01       	movw	r24, r28
 510:	73 df       	rcall	.-282    	; 0x3f8 <segment_select>
	#else
		//round up by default
		__ticks_dc = (uint32_t)(ceil(fabs(__tmp)));
	#endif

	__builtin_avr_delay_cycles(__ticks_dc);
 512:	89 ef       	ldi	r24, 0xF9	; 249
 514:	90 e0       	ldi	r25, 0x00	; 0
 516:	01 97       	sbiw	r24, 0x01	; 1
 518:	f1 f7       	brne	.-4      	; 0x516 <segment_writeChar+0x16>
 51a:	00 c0       	rjmp	.+0      	; 0x51c <segment_writeChar+0x1c>
 51c:	00 00       	nop
	_delay_ms(1);
	segment_disselect(seg,dig);
 51e:	61 2f       	mov	r22, r17
 520:	ce 01       	movw	r24, r28
 522:	79 df       	rcall	.-270    	; 0x416 <segment_disselect>
 524:	89 ef       	ldi	r24, 0xF9	; 249
 526:	90 e0       	ldi	r25, 0x00	; 0
 528:	01 97       	sbiw	r24, 0x01	; 1
 52a:	f1 f7       	brne	.-4      	; 0x528 <segment_writeChar+0x28>
 52c:	00 c0       	rjmp	.+0      	; 0x52e <segment_writeChar+0x2e>
 52e:	00 00       	nop
		_delay_ms(1);
}
 530:	df 91       	pop	r29
 532:	cf 91       	pop	r28
 534:	1f 91       	pop	r17
 536:	08 95       	ret

00000538 <_exit>:
 538:	f8 94       	cli

0000053a <__stop_program>:
 53a:	ff cf       	rjmp	.-2      	; 0x53a <__stop_program>
